target datalayout = "e-m:e-p270:32:32-p271:32:32-p272:64:64-i64:64-i128:128-f80:128-n8:16:32:64-S128"
target triple = "x86_64-pc-linux-gnu"

%struct.H5O_loc_t = type { ptr, i64, i8 }
%struct.H5G_names_t = type { i32, ptr, ptr, ptr, ptr }
%struct.H5O_link_t = type { i32, i8, i64, i32, ptr, %union.anon }
%union.anon = type { %struct.H5O_link_ud_t }
%struct.H5O_link_ud_t = type { ptr, i64 }
%struct.H5O_link_hard_t = type { i64 }

@.str.1 = private unnamed_addr constant [101 x i8] c"generated/home/dtcxzyw/WorkSpace/Projects/compilers/llvm-opt-benchmark/bench/hdf5/hdf5/src/H5Gname.c\00", align 1
@H5E_SYM_g = external global i64, align 8
@H5E_CANTGET_g = external global i64, align 8
@__func__.H5G_name_replace = private unnamed_addr constant [17 x i8] c"H5G_name_replace\00", align 1
@.str.5 = private unnamed_addr constant [22 x i8] c"can't get object type\00", align 1
@H5E_BADTYPE_g = external global i64, align 8
@.str.6 = private unnamed_addr constant [43 x i8] c"maps not supported in native VOL connector\00", align 1
@.str.7 = private unnamed_addr constant [22 x i8] c"not valid object type\00", align 1
@H5E_BADVALUE_g = external global i64, align 8
@.str.8 = private unnamed_addr constant [18 x i8] c"unknown link type\00", align 1
@H5E_BADITER_g = external global i64, align 8
@.str.9 = private unnamed_addr constant [26 x i8] c"can't iterate over groups\00", align 1
@.str.10 = private unnamed_addr constant [28 x i8] c"can't iterate over datasets\00", align 1
@.str.11 = private unnamed_addr constant [29 x i8] c"can't iterate over datatypes\00", align 1

; Function Attrs: nounwind uwtable
define i32 @H5G_name_replace(ptr noundef %0, i32 noundef %1, ptr noundef %2, ptr noundef %3, ptr noundef %4, ptr noundef %5) #0 {
  %7 = alloca ptr, align 8
  %8 = alloca i32, align 4
  %9 = alloca ptr, align 8
  %10 = alloca ptr, align 8
  %11 = alloca ptr, align 8
  %12 = alloca ptr, align 8
  %13 = alloca i32, align 4
  %14 = alloca i8, align 1
  %15 = alloca i8, align 1
  %16 = alloca i8, align 1
  %17 = alloca i8, align 1
  %18 = alloca %struct.H5O_loc_t, align 8
  %19 = alloca i32, align 4
  %20 = alloca %struct.H5G_names_t, align 8
  store ptr %0, ptr %7, align 8
  store i32 %1, ptr %8, align 4
  store ptr %2, ptr %9, align 8
  store ptr %3, ptr %10, align 8
  store ptr %4, ptr %11, align 8
  store ptr %5, ptr %12, align 8
  store i32 0, ptr %13, align 4
  store i8 0, ptr %14, align 1
  %21 = load ptr, ptr %10, align 8
  %22 = icmp ne ptr %21, null
  br i1 %22, label %23, label %212

23:                                               ; preds = %6
  store i8 0, ptr %15, align 1
  store i8 0, ptr %16, align 1
  store i8 0, ptr %17, align 1
  %24 = load ptr, ptr %7, align 8
  %25 = icmp ne ptr %24, null
  br i1 %25, label %26, label %116

26:                                               ; preds = %23
  %27 = load ptr, ptr %7, align 8
  %28 = getelementptr inbounds %struct.H5O_link_t, ptr %27, i32 0, i32 0
  %29 = load i32, ptr %28, align 8
  switch i32 %29, label %94 [
    i32 0, label %30
    i32 1, label %92
    i32 -1, label %93
    i32 64, label %93
    i32 255, label %93
  ]

30:                                               ; preds = %26
  %31 = load ptr, ptr %9, align 8
  %32 = getelementptr inbounds %struct.H5O_loc_t, ptr %18, i32 0, i32 0
  store ptr %31, ptr %32, align 8
  %33 = load ptr, ptr %7, align 8
  %34 = getelementptr inbounds %struct.H5O_link_t, ptr %33, i32 0, i32 5
  %35 = getelementptr inbounds %struct.H5O_link_hard_t, ptr %34, i32 0, i32 0
  %36 = load i64, ptr %35, align 8
  %37 = getelementptr inbounds %struct.H5O_loc_t, ptr %18, i32 0, i32 1
  store i64 %36, ptr %37, align 8
  %38 = call i32 @H5O_obj_type(ptr noundef %18, ptr noundef %19)
  %39 = icmp slt i32 %38, 0
  br i1 %39, label %40, label %55

40:                                               ; preds = %30
  br label %41

41:                                               ; preds = %40
  br label %42

42:                                               ; preds = %41
  br label %43

43:                                               ; preds = %42
  %44 = load i64, ptr @H5E_SYM_g, align 8
  %45 = load i64, ptr @H5E_CANTGET_g, align 8
  %46 = call i32 (ptr, ptr, i32, i64, i64, ptr, ...) @H5E_printf_stack(ptr noundef @.str.1, ptr noundef @__func__.H5G_name_replace, i32 noundef 923, i64 noundef %44, i64 noundef %45, ptr noundef @.str.5)
  br label %47

47:                                               ; preds = %43
  store i8 1, ptr %14, align 1
  %48 = load i8, ptr %14, align 1
  %49 = trunc i8 %48 to i1
  %50 = zext i1 %49 to i8
  store i8 %50, ptr %14, align 1
  br label %51

51:                                               ; preds = %47
  br label %52

52:                                               ; preds = %51
  store i32 -1, ptr %13, align 4
  br label %213

53:                                               ; No predecessors!
  br label %54

54:                                               ; preds = %53
  br label %55

55:                                               ; preds = %54, %30
  %56 = load i32, ptr %19, align 4
  switch i32 %56, label %76 [
    i32 0, label %57
    i32 1, label %58
    i32 2, label %59
    i32 3, label %60
    i32 -1, label %75
    i32 4, label %75
  ]

57:                                               ; preds = %55
  store i8 1, ptr %15, align 1
  br label %91

58:                                               ; preds = %55
  store i8 1, ptr %16, align 1
  br label %91

59:                                               ; preds = %55
  store i8 1, ptr %17, align 1
  br label %91

60:                                               ; preds = %55
  br label %61

61:                                               ; preds = %60
  br label %62

62:                                               ; preds = %61
  br label %63

63:                                               ; preds = %62
  %64 = load i64, ptr @H5E_SYM_g, align 8
  %65 = load i64, ptr @H5E_BADTYPE_g, align 8
  %66 = call i32 (ptr, ptr, i32, i64, i64, ptr, ...) @H5E_printf_stack(ptr noundef @.str.1, ptr noundef @__func__.H5G_name_replace, i32 noundef 944, i64 noundef %64, i64 noundef %65, ptr noundef @.str.6)
  br label %67

67:                                               ; preds = %63
  store i8 1, ptr %14, align 1
  %68 = load i8, ptr %14, align 1
  %69 = trunc i8 %68 to i1
  %70 = zext i1 %69 to i8
  store i8 %70, ptr %14, align 1
  br label %71

71:                                               ; preds = %67
  br label %72

72:                                               ; preds = %71
  store i32 -1, ptr %13, align 4
  br label %213

73:                                               ; No predecessors!
  br label %74

74:                                               ; preds = %73
  br label %75

75:                                               ; preds = %74, %55, %55
  br label %76

76:                                               ; preds = %75, %55
  br label %77

77:                                               ; preds = %76
  br label %78

78:                                               ; preds = %77
  br label %79

79:                                               ; preds = %78
  %80 = load i64, ptr @H5E_SYM_g, align 8
  %81 = load i64, ptr @H5E_BADTYPE_g, align 8
  %82 = call i32 (ptr, ptr, i32, i64, i64, ptr, ...) @H5E_printf_stack(ptr noundef @.str.1, ptr noundef @__func__.H5G_name_replace, i32 noundef 950, i64 noundef %80, i64 noundef %81, ptr noundef @.str.7)
  br label %83

83:                                               ; preds = %79
  store i8 1, ptr %14, align 1
  %84 = load i8, ptr %14, align 1
  %85 = trunc i8 %84 to i1
  %86 = zext i1 %85 to i8
  store i8 %86, ptr %14, align 1
  br label %87

87:                                               ; preds = %83
  br label %88

88:                                               ; preds = %87
  store i32 -1, ptr %13, align 4
  br label %213

89:                                               ; No predecessors!
  br label %90

90:                                               ; preds = %89
  br label %91

91:                                               ; preds = %90, %59, %58, %57
  br label %115

92:                                               ; preds = %26
  store i8 1, ptr %17, align 1
  store i8 1, ptr %16, align 1
  store i8 1, ptr %15, align 1
  br label %115

93:                                               ; preds = %26, %26, %26
  br label %94

94:                                               ; preds = %93, %26
  %95 = load ptr, ptr %7, align 8
  %96 = getelementptr inbounds %struct.H5O_link_t, ptr %95, i32 0, i32 0
  %97 = load i32, ptr %96, align 8
  %98 = icmp slt i32 %97, 64
  br i1 %98, label %99, label %114

99:                                               ; preds = %94
  br label %100

100:                                              ; preds = %99
  br label %101

101:                                              ; preds = %100
  br label %102

102:                                              ; preds = %101
  %103 = load i64, ptr @H5E_SYM_g, align 8
  %104 = load i64, ptr @H5E_BADVALUE_g, align 8
  %105 = call i32 (ptr, ptr, i32, i64, i64, ptr, ...) @H5E_printf_stack(ptr noundef @.str.1, ptr noundef @__func__.H5G_name_replace, i32 noundef 966, i64 noundef %103, i64 noundef %104, ptr noundef @.str.8)
  br label %106

106:                                              ; preds = %102
  store i8 1, ptr %14, align 1
  %107 = load i8, ptr %14, align 1
  %108 = trunc i8 %107 to i1
  %109 = zext i1 %108 to i8
  store i8 %109, ptr %14, align 1
  br label %110

110:                                              ; preds = %106
  br label %111

111:                                              ; preds = %110
  store i32 -1, ptr %13, align 4
  br label %213

112:                                              ; No predecessors!
  br label %113

113:                                              ; preds = %112
  br label %114

114:                                              ; preds = %113, %94
  br label %115

115:                                              ; preds = %114, %92, %91
  br label %117

116:                                              ; preds = %23
  store i8 1, ptr %17, align 1
  store i8 1, ptr %16, align 1
  store i8 1, ptr %15, align 1
  br label %117

117:                                              ; preds = %116, %115
  %118 = load i8, ptr %15, align 1
  %119 = trunc i8 %118 to i1
  br i1 %119, label %126, label %120

120:                                              ; preds = %117
  %121 = load i8, ptr %16, align 1
  %122 = trunc i8 %121 to i1
  br i1 %122, label %126, label %123

123:                                              ; preds = %120
  %124 = load i8, ptr %17, align 1
  %125 = trunc i8 %124 to i1
  br i1 %125, label %126, label %211

126:                                              ; preds = %123, %120, %117
  br label %127

127:                                              ; preds = %131, %126
  %128 = load ptr, ptr %9, align 8
  %129 = call ptr @H5F_get_parent(ptr noundef %128)
  %130 = icmp ne ptr %129, null
  br i1 %130, label %131, label %134

131:                                              ; preds = %127
  %132 = load ptr, ptr %9, align 8
  %133 = call ptr @H5F_get_parent(ptr noundef %132)
  store ptr %133, ptr %9, align 8
  br label %127

134:                                              ; preds = %127
  %135 = load ptr, ptr %9, align 8
  %136 = getelementptr inbounds %struct.H5G_names_t, ptr %20, i32 0, i32 1
  store ptr %135, ptr %136, align 8
  %137 = load ptr, ptr %10, align 8
  %138 = getelementptr inbounds %struct.H5G_names_t, ptr %20, i32 0, i32 2
  store ptr %137, ptr %138, align 8
  %139 = load ptr, ptr %11, align 8
  %140 = getelementptr inbounds %struct.H5G_names_t, ptr %20, i32 0, i32 3
  store ptr %139, ptr %140, align 8
  %141 = load ptr, ptr %12, align 8
  %142 = getelementptr inbounds %struct.H5G_names_t, ptr %20, i32 0, i32 4
  store ptr %141, ptr %142, align 8
  %143 = load i32, ptr %8, align 4
  %144 = getelementptr inbounds %struct.H5G_names_t, ptr %20, i32 0, i32 0
  store i32 %143, ptr %144, align 8
  %145 = load i8, ptr %15, align 1
  %146 = trunc i8 %145 to i1
  br i1 %146, label %147, label %166

147:                                              ; preds = %134
  %148 = call i32 @H5I_iterate(i32 noundef 2, ptr noundef @H5G__name_replace_cb, ptr noundef %20, i1 noundef zeroext false)
  %149 = icmp slt i32 %148, 0
  br i1 %149, label %150, label %165

150:                                              ; preds = %147
  br label %151

151:                                              ; preds = %150
  br label %152

152:                                              ; preds = %151
  br label %153

153:                                              ; preds = %152
  %154 = load i64, ptr @H5E_SYM_g, align 8
  %155 = load i64, ptr @H5E_BADITER_g, align 8
  %156 = call i32 (ptr, ptr, i32, i64, i64, ptr, ...) @H5E_printf_stack(ptr noundef @.str.1, ptr noundef @__func__.H5G_name_replace, i32 noundef 998, i64 noundef %154, i64 noundef %155, ptr noundef @.str.9)
  br label %157

157:                                              ; preds = %153
  store i8 1, ptr %14, align 1
  %158 = load i8, ptr %14, align 1
  %159 = trunc i8 %158 to i1
  %160 = zext i1 %159 to i8
  store i8 %160, ptr %14, align 1
  br label %161

161:                                              ; preds = %157
  br label %162

162:                                              ; preds = %161
  store i32 -1, ptr %13, align 4
  br label %213

163:                                              ; No predecessors!
  br label %164

164:                                              ; preds = %163
  br label %165

165:                                              ; preds = %164, %147
  br label %166

166:                                              ; preds = %165, %134
  %167 = load i8, ptr %16, align 1
  %168 = trunc i8 %167 to i1
  br i1 %168, label %169, label %188

169:                                              ; preds = %166
  %170 = call i32 @H5I_iterate(i32 noundef 5, ptr noundef @H5G__name_replace_cb, ptr noundef %20, i1 noundef zeroext false)
  %171 = icmp slt i32 %170, 0
  br i1 %171, label %172, label %187

172:                                              ; preds = %169
  br label %173

173:                                              ; preds = %172
  br label %174

174:                                              ; preds = %173
  br label %175

175:                                              ; preds = %174
  %176 = load i64, ptr @H5E_SYM_g, align 8
  %177 = load i64, ptr @H5E_BADITER_g, align 8
  %178 = call i32 (ptr, ptr, i32, i64, i64, ptr, ...) @H5E_printf_stack(ptr noundef @.str.1, ptr noundef @__func__.H5G_name_replace, i32 noundef 1003, i64 noundef %176, i64 noundef %177, ptr noundef @.str.10)
  br label %179

179:                                              ; preds = %175
  store i8 1, ptr %14, align 1
  %180 = load i8, ptr %14, align 1
  %181 = trunc i8 %180 to i1
  %182 = zext i1 %181 to i8
  store i8 %182, ptr %14, align 1
  br label %183

183:                                              ; preds = %179
  br label %184

184:                                              ; preds = %183
  store i32 -1, ptr %13, align 4
  br label %213

185:                                              ; No predecessors!
  br label %186

186:                                              ; preds = %185
  br label %187

187:                                              ; preds = %186, %169
  br label %188

188:                                              ; preds = %187, %166
  %189 = load i8, ptr %17, align 1
  %190 = trunc i8 %189 to i1
  br i1 %190, label %191, label %210

191:                                              ; preds = %188
  %192 = call i32 @H5I_iterate(i32 noundef 3, ptr noundef @H5G__name_replace_cb, ptr noundef %20, i1 noundef zeroext false)
  %193 = icmp slt i32 %192, 0
  br i1 %193, label %194, label %209

194:                                              ; preds = %191
  br label %195

195:                                              ; preds = %194
  br label %196

196:                                              ; preds = %195
  br label %197

197:                                              ; preds = %196
  %198 = load i64, ptr @H5E_SYM_g, align 8
  %199 = load i64, ptr @H5E_BADITER_g, align 8
  %200 = call i32 (ptr, ptr, i32, i64, i64, ptr, ...) @H5E_printf_stack(ptr noundef @.str.1, ptr noundef @__func__.H5G_name_replace, i32 noundef 1008, i64 noundef %198, i64 noundef %199, ptr noundef @.str.11)
  br label %201

201:                                              ; preds = %197
  store i8 1, ptr %14, align 1
  %202 = load i8, ptr %14, align 1
  %203 = trunc i8 %202 to i1
  %204 = zext i1 %203 to i8
  store i8 %204, ptr %14, align 1
  br label %205

205:                                              ; preds = %201
  br label %206

206:                                              ; preds = %205
  store i32 -1, ptr %13, align 4
  br label %213

207:                                              ; No predecessors!
  br label %208

208:                                              ; preds = %207
  br label %209

209:                                              ; preds = %208, %191
  br label %210

210:                                              ; preds = %209, %188
  br label %211

211:                                              ; preds = %210, %123
  br label %212

212:                                              ; preds = %211, %6
  br label %213

213:                                              ; preds = %212, %206, %184, %162, %111, %88, %72, %52
  %214 = load i32, ptr %13, align 4
  ret i32 %214
}