; Function Attrs: nounwind uwtable
define range(i32 -1, 1) i32 @H5G_name_replace(ptr noundef readonly %0, i32 noundef %1, ptr noundef %2, ptr noundef %3, ptr noundef %4, ptr noundef %5) local_unnamed_addr #2 {
  %7 = alloca %struct.H5O_loc_t, align 8
  %8 = alloca i32, align 4
  %9 = alloca %struct.H5G_names_t, align 8
  %.not = icmp eq ptr %3, null
  br i1 %.not, label %71, label %10

10:                                               ; preds = %6
  %.not32 = icmp eq ptr %0, null
  br i1 %.not32, label %.preheader, label %11

11:                                               ; preds = %10
  %12 = load i32, ptr %0, align 8
  switch i32 %12, label %35 [
    i32 0, label %13
    i32 1, label %.preheader
  ]

13:                                               ; preds = %11
  store ptr %2, ptr %7, align 8
  %14 = getelementptr inbounds i8, ptr %0, i64 32
  %15 = load i64, ptr %14, align 8
  %16 = getelementptr inbounds i8, ptr %7, i64 8
  store i64 %15, ptr %16, align 8
  %17 = call i32 @H5O_obj_type(ptr noundef nonnull %7, ptr noundef nonnull %8) #10
  %18 = icmp slt i32 %17, 0
  br i1 %18, label %19, label %23

19:                                               ; preds = %13
  %20 = load i64, ptr @H5E_SYM_g, align 8
  %21 = load i64, ptr @H5E_CANTGET_g, align 8
  %22 = call i32 (ptr, ptr, i32, i64, i64, ptr, ...) @H5E_printf_stack(ptr noundef nonnull @.str.1, ptr noundef nonnull @__func__.H5G_name_replace, i32 noundef 923, i64 noundef %20, i64 noundef %21, ptr noundef nonnull @.str.5) #10
  br label %71

23:                                               ; preds = %13
  %24 = load i32, ptr %8, align 4
  switch i32 %24, label %31 [
    i32 0, label %.preheader
    i32 1, label %25
    i32 2, label %26
    i32 3, label %27
  ]

25:                                               ; preds = %23
  br label %.preheader

26:                                               ; preds = %23
  br label %.preheader

27:                                               ; preds = %23
  %28 = load i64, ptr @H5E_SYM_g, align 8
  %29 = load i64, ptr @H5E_BADTYPE_g, align 8
  %30 = call i32 (ptr, ptr, i32, i64, i64, ptr, ...) @H5E_printf_stack(ptr noundef nonnull @.str.1, ptr noundef nonnull @__func__.H5G_name_replace, i32 noundef 944, i64 noundef %28, i64 noundef %29, ptr noundef nonnull @.str.6) #10
  br label %71

31:                                               ; preds = %23
  %32 = load i64, ptr @H5E_SYM_g, align 8
  %33 = load i64, ptr @H5E_BADTYPE_g, align 8
  %34 = call i32 (ptr, ptr, i32, i64, i64, ptr, ...) @H5E_printf_stack(ptr noundef nonnull @.str.1, ptr noundef nonnull @__func__.H5G_name_replace, i32 noundef 950, i64 noundef %32, i64 noundef %33, ptr noundef nonnull @.str.7) #10
  br label %71

35:                                               ; preds = %11
  %36 = icmp slt i32 %12, 64
  br i1 %36, label %37, label %71

37:                                               ; preds = %35
  %38 = load i64, ptr @H5E_SYM_g, align 8
  %39 = load i64, ptr @H5E_BADVALUE_g, align 8
  %40 = tail call i32 (ptr, ptr, i32, i64, i64, ptr, ...) @H5E_printf_stack(ptr noundef nonnull @.str.1, ptr noundef nonnull @__func__.H5G_name_replace, i32 noundef 966, i64 noundef %38, i64 noundef %39, ptr noundef nonnull @.str.8) #10
  br label %71

.preheader:                                       ; preds = %26, %25, %10, %11, %23
  %.044 = phi i1 [ true, %10 ], [ true, %11 ], [ false, %23 ], [ false, %25 ], [ true, %26 ]
  %.02643 = phi i1 [ true, %10 ], [ true, %11 ], [ false, %23 ], [ true, %25 ], [ false, %26 ]
  %.02742 = phi i1 [ true, %10 ], [ true, %11 ], [ true, %23 ], [ false, %25 ], [ false, %26 ]
  %41 = call ptr @H5F_get_parent(ptr noundef %2) #10
  %.not3335 = icmp eq ptr %41, null
  br i1 %.not3335, label %._crit_edge, label %.lr.ph

.lr.ph:                                           ; preds = %.preheader, %.lr.ph
  %.02936 = phi ptr [ %42, %.lr.ph ], [ %2, %.preheader ]
  %42 = call ptr @H5F_get_parent(ptr noundef %.02936) #10
  %43 = call ptr @H5F_get_parent(ptr noundef %42) #10
  %.not33 = icmp eq ptr %43, null
  br i1 %.not33, label %._crit_edge, label %.lr.ph

._crit_edge:                                      ; preds = %.lr.ph, %.preheader
  %.029.lcssa = phi ptr [ %2, %.preheader ], [ %42, %.lr.ph ]
  %44 = getelementptr inbounds i8, ptr %9, i64 8
  store ptr %.029.lcssa, ptr %44, align 8
  %45 = getelementptr inbounds i8, ptr %9, i64 16
  store ptr %3, ptr %45, align 8
  %46 = getelementptr inbounds i8, ptr %9, i64 24
  store ptr %4, ptr %46, align 8
  %47 = getelementptr inbounds i8, ptr %9, i64 32
  store ptr %5, ptr %47, align 8
  store i32 %1, ptr %9, align 8
  br i1 %.02742, label %48, label %55

48:                                               ; preds = %._crit_edge
  %49 = call i32 @H5I_iterate(i32 noundef 2, ptr noundef nonnull @H5G__name_replace_cb, ptr noundef nonnull %9, i1 noundef zeroext false) #10
  %50 = icmp slt i32 %49, 0
  br i1 %50, label %51, label %55

51:                                               ; preds = %48
  %52 = load i64, ptr @H5E_SYM_g, align 8
  %53 = load i64, ptr @H5E_BADITER_g, align 8
  %54 = call i32 (ptr, ptr, i32, i64, i64, ptr, ...) @H5E_printf_stack(ptr noundef nonnull @.str.1, ptr noundef nonnull @__func__.H5G_name_replace, i32 noundef 998, i64 noundef %52, i64 noundef %53, ptr noundef nonnull @.str.9) #10
  br label %71

55:                                               ; preds = %48, %._crit_edge
  br i1 %.02643, label %56, label %63

56:                                               ; preds = %55
  %57 = call i32 @H5I_iterate(i32 noundef 5, ptr noundef nonnull @H5G__name_replace_cb, ptr noundef nonnull %9, i1 noundef zeroext false) #10
  %58 = icmp slt i32 %57, 0
  br i1 %58, label %59, label %63

59:                                               ; preds = %56
  %60 = load i64, ptr @H5E_SYM_g, align 8
  %61 = load i64, ptr @H5E_BADITER_g, align 8
  %62 = call i32 (ptr, ptr, i32, i64, i64, ptr, ...) @H5E_printf_stack(ptr noundef nonnull @.str.1, ptr noundef nonnull @__func__.H5G_name_replace, i32 noundef 1003, i64 noundef %60, i64 noundef %61, ptr noundef nonnull @.str.10) #10
  br label %71

63:                                               ; preds = %56, %55
  br i1 %.044, label %64, label %71

64:                                               ; preds = %63
  %65 = call i32 @H5I_iterate(i32 noundef 3, ptr noundef nonnull @H5G__name_replace_cb, ptr noundef nonnull %9, i1 noundef zeroext false) #10
  %66 = icmp slt i32 %65, 0
  br i1 %66, label %67, label %71

67:                                               ; preds = %64
  %68 = load i64, ptr @H5E_SYM_g, align 8
  %69 = load i64, ptr @H5E_BADITER_g, align 8
  %70 = call i32 (ptr, ptr, i32, i64, i64, ptr, ...) @H5E_printf_stack(ptr noundef nonnull @.str.1, ptr noundef nonnull @__func__.H5G_name_replace, i32 noundef 1008, i64 noundef %68, i64 noundef %69, ptr noundef nonnull @.str.11) #10
  br label %71

71:                                               ; preds = %35, %6, %63, %64, %67, %59, %51, %37, %31, %27, %19
  %.028 = phi i32 [ -1, %37 ], [ -1, %51 ], [ -1, %59 ], [ -1, %67 ], [ 0, %64 ], [ 0, %63 ], [ -1, %19 ], [ -1, %31 ], [ -1, %27 ], [ 0, %6 ], [ 0, %35 ]
  ret i32 %.028
}